target datalayout = "e-m:e-p270:32:32-p271:32:32-p272:64:64-i64:64-i128:128-f80:128-n8:16:32:64-S128"
target triple = "x86_64-pc-linux-gnu"

%struct.wtap = type { ptr, ptr, i8, i32, i32, ptr, ptr, ptr, i32, ptr, ptr, ptr, ptr, ptr, ptr, ptr, ptr, ptr, ptr, i32, i32, ptr, ptr, ptr, ptr }
%struct.usbdump_info_t = type { i16, i32, i8 }

@usbdump_file_type_subtype = internal global i32 0, align 4
@.str.1 = private unnamed_addr constant [35 x i8] c"usbdump: version %u.%u unsupported\00", align 1

; Function Attrs: null_pointer_is_valid sspstrong uwtable
define internal i32 @usbdump_open(ptr noundef %0, ptr noundef %1, ptr noundef %2) #0 {
  %4 = alloca i32, align 4
  %5 = alloca ptr, align 8
  %6 = alloca ptr, align 8
  %7 = alloca ptr, align 8
  %8 = alloca i32, align 4
  %9 = alloca i16, align 2
  %10 = alloca i32, align 4
  %11 = alloca ptr, align 8
  %12 = alloca i32, align 4
  %13 = alloca i64, align 8
  %14 = alloca i64, align 8
  %15 = alloca ptr, align 8
  %16 = alloca ptr, align 8
  store ptr %0, ptr %5, align 8
  store ptr %1, ptr %6, align 8
  store ptr %2, ptr %7, align 8
  call void @llvm.lifetime.start.p0(i64 4, ptr %8) #7
  call void @llvm.lifetime.start.p0(i64 2, ptr %9) #7
  call void @llvm.lifetime.start.p0(i64 4, ptr %10) #7
  call void @llvm.lifetime.start.p0(i64 8, ptr %11) #7
  %17 = load ptr, ptr %5, align 8
  %18 = getelementptr inbounds nuw %struct.wtap, ptr %17, i32 0, i32 0
  %19 = load ptr, ptr %18, align 8
  %20 = load ptr, ptr %6, align 8
  %21 = load ptr, ptr %7, align 8
  %22 = call zeroext i1 @wtap_read_bytes(ptr noundef %19, ptr noundef %8, i32 noundef 4, ptr noundef %20, ptr noundef %21)
  br i1 %22, label %29, label %23

23:                                               ; preds = %3
  %24 = load ptr, ptr %6, align 8
  %25 = load i32, ptr %24, align 4
  %26 = icmp ne i32 %25, -12
  br i1 %26, label %27, label %28

27:                                               ; preds = %23
  store i32 -1, ptr %4, align 4
  store i32 1, ptr %12, align 4
  br label %160

28:                                               ; preds = %23
  store i32 0, ptr %4, align 4
  store i32 1, ptr %12, align 4
  br label %160

29:                                               ; preds = %3
  %30 = load i32, ptr %8, align 4
  %31 = icmp ne i32 %30, -1701838834
  br i1 %31, label %32, label %33

32:                                               ; preds = %29
  store i32 0, ptr %4, align 4
  store i32 1, ptr %12, align 4
  br label %160

33:                                               ; preds = %29
  %34 = load ptr, ptr %5, align 8
  %35 = getelementptr inbounds nuw %struct.wtap, ptr %34, i32 0, i32 0
  %36 = load ptr, ptr %35, align 8
  %37 = load ptr, ptr %6, align 8
  %38 = load ptr, ptr %7, align 8
  %39 = call zeroext i1 @wtap_read_bytes(ptr noundef %36, ptr noundef %9, i32 noundef 2, ptr noundef %37, ptr noundef %38)
  br i1 %39, label %46, label %40

40:                                               ; preds = %33
  %41 = load ptr, ptr %6, align 8
  %42 = load i32, ptr %41, align 4
  %43 = icmp ne i32 %42, -12
  br i1 %43, label %44, label %45

44:                                               ; preds = %40
  store i32 -1, ptr %4, align 4
  store i32 1, ptr %12, align 4
  br label %160

45:                                               ; preds = %40
  store i32 0, ptr %4, align 4
  store i32 1, ptr %12, align 4
  br label %160

46:                                               ; preds = %33
  %47 = load i16, ptr %9, align 2
  %48 = zext i16 %47 to i32
  %49 = ashr i32 %48, 8
  %50 = trunc i32 %49 to i16
  %51 = zext i16 %50 to i32
  %52 = load i16, ptr %9, align 2
  %53 = zext i16 %52 to i32
  %54 = shl i32 %53, 8
  %55 = trunc i32 %54 to i16
  %56 = zext i16 %55 to i32
  %57 = or i32 %51, %56
  %58 = trunc i32 %57 to i16
  %59 = zext i16 %58 to i32
  %60 = icmp ne i32 %59, 3
  br i1 %60, label %61, label %71

61:                                               ; preds = %46
  %62 = load ptr, ptr %6, align 8
  store i32 -4, ptr %62, align 4
  %63 = load i16, ptr %9, align 2
  %64 = zext i16 %63 to i32
  %65 = ashr i32 %64, 8
  %66 = load i16, ptr %9, align 2
  %67 = zext i16 %66 to i32
  %68 = and i32 %67, 255
  %69 = call noalias ptr (ptr, ptr, ...) @wmem_strdup_printf(ptr noundef null, ptr noundef @.str.1, i32 noundef %65, i32 noundef %68)
  %70 = load ptr, ptr %7, align 8
  store ptr %69, ptr %70, align 8
  store i32 0, ptr %4, align 4
  store i32 1, ptr %12, align 4
  br label %160

71:                                               ; preds = %46
  %72 = load ptr, ptr %5, align 8
  %73 = getelementptr inbounds nuw %struct.wtap, ptr %72, i32 0, i32 0
  %74 = load ptr, ptr %73, align 8
  %75 = load ptr, ptr %6, align 8
  %76 = load ptr, ptr %7, align 8
  %77 = call zeroext i1 @wtap_read_bytes(ptr noundef %74, ptr noundef null, i32 noundef 26, ptr noundef %75, ptr noundef %76)
  br i1 %77, label %84, label %78

78:                                               ; preds = %71
  %79 = load ptr, ptr %6, align 8
  %80 = load i32, ptr %79, align 4
  %81 = icmp ne i32 %80, -12
  br i1 %81, label %82, label %83

82:                                               ; preds = %78
  store i32 -1, ptr %4, align 4
  store i32 1, ptr %12, align 4
  br label %160

83:                                               ; preds = %78
  store i32 0, ptr %4, align 4
  store i32 1, ptr %12, align 4
  br label %160

84:                                               ; preds = %71
  %85 = load ptr, ptr %5, align 8
  %86 = getelementptr inbounds nuw %struct.wtap, ptr %85, i32 0, i32 0
  %87 = load ptr, ptr %86, align 8
  %88 = load ptr, ptr %6, align 8
  %89 = load ptr, ptr %7, align 8
  %90 = call zeroext i1 @wtap_read_bytes(ptr noundef %87, ptr noundef %10, i32 noundef 4, ptr noundef %88, ptr noundef %89)
  br i1 %90, label %97, label %91

91:                                               ; preds = %84
  %92 = load ptr, ptr %6, align 8
  %93 = load i32, ptr %92, align 4
  %94 = icmp ne i32 %93, -12
  br i1 %94, label %95, label %96

95:                                               ; preds = %91
  store i32 -1, ptr %4, align 4
  store i32 1, ptr %12, align 4
  br label %160

96:                                               ; preds = %91
  store i32 0, ptr %4, align 4
  store i32 1, ptr %12, align 4
  br label %160

97:                                               ; preds = %84
  call void @llvm.lifetime.start.p0(i64 8, ptr %13) #7
  store i64 1, ptr %13, align 8
  call void @llvm.lifetime.start.p0(i64 8, ptr %14) #7
  store i64 12, ptr %14, align 8
  call void @llvm.lifetime.start.p0(i64 8, ptr %15) #7
  %98 = load i64, ptr %14, align 8
  %99 = icmp eq i64 %98, 1
  br i1 %99, label %100, label %103

100:                                              ; preds = %97
  %101 = load i64, ptr %13, align 8
  %102 = call noalias ptr @g_malloc(i64 noundef %101) #8
  store ptr %102, ptr %15, align 8
  br label %124

103:                                              ; preds = %97
  %104 = load i64, ptr %13, align 8
  %105 = call i1 @llvm.is.constant.i64(i64 %104)
  br i1 %105, label %106, label %119

106:                                              ; preds = %103
  %107 = load i64, ptr %14, align 8
  %108 = icmp eq i64 %107, 0
  br i1 %108, label %114, label %109

109:                                              ; preds = %106
  %110 = load i64, ptr %13, align 8
  %111 = load i64, ptr %14, align 8
  %112 = udiv i64 -1, %111
  %113 = icmp ule i64 %110, %112
  br i1 %113, label %114, label %119

114:                                              ; preds = %109, %106
  %115 = load i64, ptr %13, align 8
  %116 = load i64, ptr %14, align 8
  %117 = mul i64 %115, %116
  %118 = call noalias ptr @g_malloc(i64 noundef %117) #8
  store ptr %118, ptr %15, align 8
  br label %123

119:                                              ; preds = %109, %103
  %120 = load i64, ptr %13, align 8
  %121 = load i64, ptr %14, align 8
  %122 = call noalias ptr @g_malloc_n(i64 noundef %120, i64 noundef %121) #9
  store ptr %122, ptr %15, align 8
  br label %123

123:                                              ; preds = %119, %114
  br label %124

124:                                              ; preds = %123, %100
  %125 = load ptr, ptr %15, align 8
  store ptr %125, ptr %16, align 8
  call void @llvm.lifetime.end.p0(i64 8, ptr %15) #7
  call void @llvm.lifetime.end.p0(i64 8, ptr %14) #7
  call void @llvm.lifetime.end.p0(i64 8, ptr %13) #7
  %126 = load ptr, ptr %16, align 8
  store ptr %126, ptr %11, align 8
  %127 = load i16, ptr %9, align 2
  %128 = zext i16 %127 to i32
  %129 = ashr i32 %128, 8
  %130 = trunc i32 %129 to i16
  %131 = zext i16 %130 to i32
  %132 = load i16, ptr %9, align 2
  %133 = zext i16 %132 to i32
  %134 = shl i32 %133, 8
  %135 = trunc i32 %134 to i16
  %136 = zext i16 %135 to i32
  %137 = or i32 %131, %136
  %138 = trunc i32 %137 to i16
  %139 = load ptr, ptr %11, align 8
  %140 = getelementptr inbounds nuw %struct.usbdump_info_t, ptr %139, i32 0, i32 0
  store i16 %138, ptr %140, align 4
  %141 = load i32, ptr %10, align 4
  %142 = load ptr, ptr %11, align 8
  %143 = getelementptr inbounds nuw %struct.usbdump_info_t, ptr %142, i32 0, i32 1
  store i32 %141, ptr %143, align 4
  %144 = load ptr, ptr %11, align 8
  %145 = getelementptr inbounds nuw %struct.usbdump_info_t, ptr %144, i32 0, i32 2
  store i8 0, ptr %145, align 4
  %146 = load ptr, ptr %11, align 8
  %147 = load ptr, ptr %5, align 8
  %148 = getelementptr inbounds nuw %struct.wtap, ptr %147, i32 0, i32 13
  store ptr %146, ptr %148, align 8
  %149 = load ptr, ptr %5, align 8
  %150 = getelementptr inbounds nuw %struct.wtap, ptr %149, i32 0, i32 15
  store ptr @usbdump_read, ptr %150, align 8
  %151 = load ptr, ptr %5, align 8
  %152 = getelementptr inbounds nuw %struct.wtap, ptr %151, i32 0, i32 16
  store ptr @usbdump_seek_read, ptr %152, align 8
  %153 = load i32, ptr @usbdump_file_type_subtype, align 4
  %154 = load ptr, ptr %5, align 8
  %155 = getelementptr inbounds nuw %struct.wtap, ptr %154, i32 0, i32 3
  store i32 %153, ptr %155, align 4
  %156 = load ptr, ptr %5, align 8
  %157 = getelementptr inbounds nuw %struct.wtap, ptr %156, i32 0, i32 19
  store i32 92, ptr %157, align 8
  %158 = load ptr, ptr %5, align 8
  %159 = getelementptr inbounds nuw %struct.wtap, ptr %158, i32 0, i32 20
  store i32 6, ptr %159, align 4
  store i32 1, ptr %4, align 4
  store i32 1, ptr %12, align 4
  br label %160

160:                                              ; preds = %124, %96, %95, %83, %82, %61, %45, %44, %32, %28, %27
  call void @llvm.lifetime.end.p0(i64 8, ptr %11) #7
  call void @llvm.lifetime.end.p0(i64 4, ptr %10) #7
  call void @llvm.lifetime.end.p0(i64 2, ptr %9) #7
  call void @llvm.lifetime.end.p0(i64 4, ptr %8) #7
  %161 = load i32, ptr %4, align 4
  ret i32 %161
}