; Function Attrs: null_pointer_is_valid sspstrong uwtable
define internal range(i32 -1, 2) i32 @usbdump_open(ptr noundef captures(none) %0, ptr noundef %1, ptr noundef %2) #0 {
  %4 = alloca i32, align 4
  %5 = alloca i16, align 2
  %6 = alloca i32, align 4
  call void @llvm.lifetime.start.p0(i64 4, ptr nonnull %4) #6
  call void @llvm.lifetime.start.p0(i64 2, ptr nonnull %5) #6
  call void @llvm.lifetime.start.p0(i64 4, ptr nonnull %6) #6
  %7 = load ptr, ptr %0, align 8
  %8 = call zeroext i1 @wtap_read_bytes(ptr noundef %7, ptr noundef nonnull %4, i32 noundef 4, ptr noundef %1, ptr noundef %2)
  br i1 %8, label %11, label %9

9:                                                ; preds = %3
  %10 = load i32, ptr %1, align 4
  %.not = icmp ne i32 %10, -12
  %. = sext i1 %.not to i32
  br label %48

11:                                               ; preds = %3
  %12 = load i32, ptr %4, align 4
  %.not41 = icmp eq i32 %12, -1701838834
  br i1 %.not41, label %13, label %48

13:                                               ; preds = %11
  %14 = load ptr, ptr %0, align 8
  %15 = call zeroext i1 @wtap_read_bytes(ptr noundef %14, ptr noundef nonnull %5, i32 noundef 2, ptr noundef %1, ptr noundef %2)
  br i1 %15, label %18, label %16

16:                                               ; preds = %13
  %17 = load i32, ptr %1, align 4
  %.not42 = icmp ne i32 %17, -12
  %.46 = sext i1 %.not42 to i32
  br label %48

18:                                               ; preds = %13
  %19 = load i16, ptr %5, align 2
  %.not43 = icmp eq i16 %19, 768
  br i1 %.not43, label %25, label %20

20:                                               ; preds = %18
  store i32 -4, ptr %1, align 4
  %21 = zext i16 %19 to i32
  %22 = lshr i32 %21, 8
  %23 = and i32 %21, 255
  %24 = call noalias ptr (ptr, ptr, ...) @wmem_strdup_printf(ptr noundef null, ptr noundef nonnull @.str.1, i32 noundef %22, i32 noundef %23)
  store ptr %24, ptr %2, align 8
  br label %48

25:                                               ; preds = %18
  %26 = load ptr, ptr %0, align 8
  %27 = call zeroext i1 @wtap_read_bytes(ptr noundef %26, ptr noundef null, i32 noundef 26, ptr noundef %1, ptr noundef %2)
  br i1 %27, label %30, label %28

28:                                               ; preds = %25
  %29 = load i32, ptr %1, align 4
  %.not44 = icmp ne i32 %29, -12
  %.47 = sext i1 %.not44 to i32
  br label %48

30:                                               ; preds = %25
  %31 = load ptr, ptr %0, align 8
  %32 = call zeroext i1 @wtap_read_bytes(ptr noundef %31, ptr noundef nonnull %6, i32 noundef 4, ptr noundef %1, ptr noundef %2)
  br i1 %32, label %35, label %33

33:                                               ; preds = %30
  %34 = load i32, ptr %1, align 4
  %.not45 = icmp ne i32 %34, -12
  %.48 = sext i1 %.not45 to i32
  br label %48

35:                                               ; preds = %30
  %36 = call noalias dereferenceable_or_null(12) ptr @g_malloc(i64 noundef 12) #7
  %37 = load i16, ptr %5, align 2
  %rev = call i16 @llvm.bswap.i16(i16 %37)
  store i16 %rev, ptr %36, align 4
  %38 = load i32, ptr %6, align 4
  %39 = getelementptr inbounds nuw i8, ptr %36, i64 4
  store i32 %38, ptr %39, align 4
  %40 = getelementptr inbounds nuw i8, ptr %36, i64 8
  store i8 0, ptr %40, align 4
  %41 = getelementptr inbounds nuw i8, ptr %0, i64 96
  store ptr %36, ptr %41, align 8
  %42 = getelementptr inbounds nuw i8, ptr %0, i64 112
  store ptr @usbdump_read, ptr %42, align 8
  %43 = getelementptr inbounds nuw i8, ptr %0, i64 120
  store ptr @usbdump_seek_read, ptr %43, align 8
  %44 = load i32, ptr @usbdump_file_type_subtype, align 4
  %45 = getelementptr inbounds nuw i8, ptr %0, i64 20
  store i32 %44, ptr %45, align 4
  %46 = getelementptr inbounds nuw i8, ptr %0, i64 144
  store i32 92, ptr %46, align 8
  %47 = getelementptr inbounds nuw i8, ptr %0, i64 148
  store i32 6, ptr %47, align 4
  br label %48

48:                                               ; preds = %33, %28, %16, %11, %9, %35, %20
  %.0 = phi i32 [ 0, %20 ], [ 1, %35 ], [ %., %9 ], [ 0, %11 ], [ %.46, %16 ], [ %.47, %28 ], [ %.48, %33 ]
  call void @llvm.lifetime.end.p0(i64 4, ptr nonnull %6) #6
  call void @llvm.lifetime.end.p0(i64 2, ptr nonnull %5) #6
  call void @llvm.lifetime.end.p0(i64 4, ptr nonnull %4) #6
  ret i32 %.0
}